; Function Attrs: nounwind uwtable
define hidden range(i32 0, 2) i32 @SSL_CTX_use_RSAPrivateKey(ptr noundef readonly captures(none) %0, ptr noundef %1) local_unnamed_addr #0 {
  %3 = icmp eq ptr %1, null
  br i1 %3, label %4, label %5

4:                                                ; preds = %2
  tail call void @ERR_put_error(i32 noundef 16, i32 noundef 0, i32 noundef 67, ptr noundef nonnull @.str, i32 noundef 264) #6
  br label %15

5:                                                ; preds = %2
  %6 = tail call ptr @EVP_PKEY_new() #6
  %7 = icmp eq ptr %6, null
  br i1 %7, label %8, label %9

8:                                                ; preds = %5
  tail call void @ERR_put_error(i32 noundef 16, i32 noundef 0, i32 noundef 6, ptr noundef nonnull @.str, i32 noundef 270) #6
  br label %15

9:                                                ; preds = %5
  %10 = tail call i32 @RSA_up_ref(ptr noundef nonnull %1) #6
  %11 = tail call i32 @EVP_PKEY_assign_RSA(ptr noundef nonnull %6, ptr noundef nonnull %1) #6
  %12 = getelementptr inbounds nuw i8, ptr %0, i64 296
  %13 = load ptr, ptr %12, align 8, !tbaa !49
  %14 = tail call fastcc i32 @ssl_set_pkey(ptr noundef %13, ptr noundef %6)
  tail call void @EVP_PKEY_free(ptr noundef nonnull %6) #6
  br label %15

15:                                               ; preds = %9, %8, %4
  %.0 = phi i32 [ 0, %4 ], [ 0, %8 ], [ %14, %9 ]
  ret i32 %.0
}